; Function Attrs: nounwind uwtable
define internal void @__cxx_global_array_dtor(ptr readnone captures(none) %0) #2 section ".text.startup" personality ptr @__gxx_personality_v0 {
  br label %2

2:                                                ; preds = %_ZN10CipherTestD2Ev.exit, %1
  %3 = phi ptr [ getelementptr inbounds nuw (i8, ptr @_ZL12kCipherTests, i64 416), %1 ], [ %4, %_ZN10CipherTestD2Ev.exit ]
  %4 = getelementptr inbounds i8, ptr %3, i64 -32
  %5 = getelementptr inbounds i8, ptr %3, i64 -24
  %6 = load ptr, ptr %5, align 8, !tbaa !6
  %.not.i.i.i.i = icmp eq ptr %6, null
  br i1 %.not.i.i.i.i, label %_ZN10CipherTestD2Ev.exit, label %7

7:                                                ; preds = %2
  tail call void @_ZdlPv(ptr noundef nonnull %6) #25
  br label %_ZN10CipherTestD2Ev.exit

_ZN10CipherTestD2Ev.exit:                         ; preds = %2, %7
  %8 = icmp eq ptr %4, @_ZL12kCipherTests
  br i1 %8, label %9, label %2

9:                                                ; preds = %_ZN10CipherTestD2Ev.exit
  ret void
}